; Function Attrs: nounwind uwtable
define hidden void @SDL_DestroyHapticEffect_REAL(ptr noundef %0, i32 noundef %1) local_unnamed_addr #0 {
  %3 = tail call zeroext i1 @SDL_ObjectValid(ptr noundef %0, i32 noundef 6) #9
  br i1 %3, label %6, label %4

4:                                                ; preds = %2
  %5 = tail call zeroext i1 (ptr, ...) @SDL_SetError_REAL(ptr noundef nonnull @.str, ptr noundef nonnull @.str.1) #9
  br label %24

6:                                                ; preds = %2
  %7 = tail call zeroext i1 @SDL_HIDAPI_HapticIsHidapi(ptr noundef %0) #9
  br i1 %7, label %8, label %9

8:                                                ; preds = %6
  tail call void @SDL_HIDAPI_HapticDestroyEffect(ptr noundef %0, i32 noundef %1) #9
  br label %24

9:                                                ; preds = %6
  %10 = icmp slt i32 %1, 0
  br i1 %10, label %ValidEffect.exit, label %11

11:                                               ; preds = %9
  %12 = getelementptr inbounds nuw i8, ptr %0, i64 24
  %13 = load i32, ptr %12, align 8
  %.not.i = icmp slt i32 %1, %13
  br i1 %.not.i, label %15, label %ValidEffect.exit

ValidEffect.exit:                                 ; preds = %9, %11
  %14 = tail call zeroext i1 (ptr, ...) @SDL_SetError_REAL(ptr noundef nonnull @.str.23) #9
  br label %24

15:                                               ; preds = %11
  %16 = getelementptr inbounds nuw i8, ptr %0, i64 16
  %17 = load ptr, ptr %16, align 8
  %18 = zext nneg i32 %1 to i64
  %19 = getelementptr inbounds nuw %struct.haptic_effect, ptr %17, i64 %18
  %20 = getelementptr inbounds nuw i8, ptr %19, i64 72
  %21 = load ptr, ptr %20, align 8
  %22 = icmp eq ptr %21, null
  br i1 %22, label %24, label %23

23:                                               ; preds = %15
  tail call void @SDL_SYS_HapticDestroyEffect(ptr noundef nonnull %0, ptr noundef nonnull %19) #9
  br label %24

24:                                               ; preds = %ValidEffect.exit, %15, %23, %8, %4
  ret void
}